; Function Attrs: mustprogress nounwind uwtable
define internal void @_ZN7testing8internal30ValuesInIteratorRangeGeneratorISt5tupleIJN11opencv_test12_GLOBAL__N_110MotionTypeEEEED0Ev(ptr noundef nonnull align 8 dereferenceable(32) initializes((0, 8)) %0) unnamed_addr #11 align 2 personality ptr @__gxx_personality_v0 {
  store ptr getelementptr inbounds nuw inrange(-16, 32) (i8, ptr @_ZTVN7testing8internal30ValuesInIteratorRangeGeneratorISt5tupleIJN11opencv_test12_GLOBAL__N_110MotionTypeEEEEE, i64 16), ptr %0, align 8, !tbaa !19
  %2 = getelementptr inbounds nuw i8, ptr %0, i64 8
  %.val.i = load ptr, ptr %2, align 8
  %.not.i.i.i.i = icmp eq ptr %.val.i, null
  br i1 %.not.i.i.i.i, label %_ZN7testing8internal30ValuesInIteratorRangeGeneratorISt5tupleIJN11opencv_test12_GLOBAL__N_110MotionTypeEEEED2Ev.exit, label %3

3:                                                ; preds = %1
  tail call void @_ZdlPv(ptr noundef nonnull %.val.i) #32
  br label %_ZN7testing8internal30ValuesInIteratorRangeGeneratorISt5tupleIJN11opencv_test12_GLOBAL__N_110MotionTypeEEEED2Ev.exit

_ZN7testing8internal30ValuesInIteratorRangeGeneratorISt5tupleIJN11opencv_test12_GLOBAL__N_110MotionTypeEEEED2Ev.exit: ; preds = %1, %3
  tail call void @_ZdlPv(ptr noundef nonnull %0) #32
  ret void
}